target datalayout = "e-m:e-p270:32:32-p271:32:32-p272:64:64-i64:64-i128:128-f80:128-n8:16:32:64-S128"
target triple = "x86_64-pc-linux-gnu"

%"class.std::set" = type { %"class.std::_Rb_tree.22" }
%"class.std::_Rb_tree.22" = type { %"struct.std::_Rb_tree<unsigned long, unsigned long, std::_Identity<unsigned long>, std::less<unsigned long>>::_Rb_tree_impl" }
%"struct.std::_Rb_tree<unsigned long, unsigned long, std::_Identity<unsigned long>, std::less<unsigned long>>::_Rb_tree_impl" = type { %"struct.std::_Rb_tree_key_compare.26", %"struct.std::_Rb_tree_header" }
%"struct.std::_Rb_tree_key_compare.26" = type { %"struct.std::less.27" }
%"struct.std::less.27" = type { i8 }
%"struct.std::_Rb_tree_header" = type { %"struct.std::_Rb_tree_node_base", i64 }
%"struct.std::_Rb_tree_node_base" = type { i32, ptr, ptr, ptr }
%class.cmCTestMultiProcessHandler = type <{ ptr, i8, [7 x i8], %class.cmCTestResourceSpec, %"class.std::__cxx11::basic_string", %"class.std::__cxx11::basic_string", %"class.std::optional", i8, [7 x i8], %"struct.cmCTestMultiProcessHandler::TestMap", %"class.std::__cxx11::list", i64, i64, i64, %"class.std::set", i64, i8, [7 x i8], %"struct.cmCTestMultiProcessHandler::PropertiesMap", %"class.std::map.34", ptr, ptr, %"class.std::vector.39", %"class.std::set.44", %"class.std::map.49", %"class.std::map.54", %class.cmCTestResourceAllocator, ptr, i64, %"class.std::optional.64", %"class.std::__cxx11::list", i64, i64, %"class.cm::uv_loop_ptr", %"struct.cm::uv_idle_ptr", %"struct.cm::uv_timer_ptr", ptr, ptr, i8, [3 x i8], i32, i32, i8, i8, [2 x i8] }>
%class.cmCTestResourceSpec = type { %"class.cmCTestResourceSpec::Socket", %class.cmJSONState }
%"class.cmCTestResourceSpec::Socket" = type { %"class.std::map" }
%"class.std::map" = type { %"class.std::_Rb_tree" }
%"class.std::_Rb_tree" = type { %"struct.std::_Rb_tree<std::__cxx11::basic_string<char>, std::pair<const std::__cxx11::basic_string<char>, std::vector<cmCTestResourceSpec::Resource>>, std::_Select1st<std::pair<const std::__cxx11::basic_string<char>, std::vector<cmCTestResourceSpec::Resource>>>, std::less<std::__cxx11::basic_string<char>>>::_Rb_tree_impl" }
%"struct.std::_Rb_tree<std::__cxx11::basic_string<char>, std::pair<const std::__cxx11::basic_string<char>, std::vector<cmCTestResourceSpec::Resource>>, std::_Select1st<std::pair<const std::__cxx11::basic_string<char>, std::vector<cmCTestResourceSpec::Resource>>>, std::less<std::__cxx11::basic_string<char>>>::_Rb_tree_impl" = type { %"struct.std::_Rb_tree_key_compare", %"struct.std::_Rb_tree_header" }
%"struct.std::_Rb_tree_key_compare" = type { %"struct.std::less" }
%"struct.std::less" = type { i8 }
%class.cmJSONState = type { %"class.std::vector", %"class.std::vector.3", %"class.std::__cxx11::basic_string" }
%"class.std::vector" = type { %"struct.std::_Vector_base" }
%"struct.std::_Vector_base" = type { %"struct.std::_Vector_base<std::pair<const std::__cxx11::basic_string<char>, const Json::Value *>, std::allocator<std::pair<const std::__cxx11::basic_string<char>, const Json::Value *>>>::_Vector_impl" }
%"struct.std::_Vector_base<std::pair<const std::__cxx11::basic_string<char>, const Json::Value *>, std::allocator<std::pair<const std::__cxx11::basic_string<char>, const Json::Value *>>>::_Vector_impl" = type { %"struct.std::_Vector_base<std::pair<const std::__cxx11::basic_string<char>, const Json::Value *>, std::allocator<std::pair<const std::__cxx11::basic_string<char>, const Json::Value *>>>::_Vector_impl_data" }
%"struct.std::_Vector_base<std::pair<const std::__cxx11::basic_string<char>, const Json::Value *>, std::allocator<std::pair<const std::__cxx11::basic_string<char>, const Json::Value *>>>::_Vector_impl_data" = type { ptr, ptr, ptr }
%"class.std::vector.3" = type { %"struct.std::_Vector_base.4" }
%"struct.std::_Vector_base.4" = type { %"struct.std::_Vector_base<cmJSONState::Error, std::allocator<cmJSONState::Error>>::_Vector_impl" }
%"struct.std::_Vector_base<cmJSONState::Error, std::allocator<cmJSONState::Error>>::_Vector_impl" = type { %"struct.std::_Vector_base<cmJSONState::Error, std::allocator<cmJSONState::Error>>::_Vector_impl_data" }
%"struct.std::_Vector_base<cmJSONState::Error, std::allocator<cmJSONState::Error>>::_Vector_impl_data" = type { ptr, ptr, ptr }
%"class.std::__cxx11::basic_string" = type { %"struct.std::__cxx11::basic_string<char>::_Alloc_hider", i64, %union.anon }
%"struct.std::__cxx11::basic_string<char>::_Alloc_hider" = type { ptr }
%union.anon = type { i64, [8 x i8] }
%"class.std::optional" = type { %"struct.std::_Optional_base" }
%"struct.std::_Optional_base" = type { %"struct.std::_Optional_payload" }
%"struct.std::_Optional_payload" = type { %"struct.std::_Optional_payload_base.base", [7 x i8] }
%"struct.std::_Optional_payload_base.base" = type <{ %"union.std::_Optional_payload_base<unsigned long>::_Storage", i8 }>
%"union.std::_Optional_payload_base<unsigned long>::_Storage" = type { i64 }
%"struct.cmCTestMultiProcessHandler::TestMap" = type { %"class.std::map.11" }
%"class.std::map.11" = type { %"class.std::_Rb_tree.12" }
%"class.std::_Rb_tree.12" = type { %"struct.std::_Rb_tree<int, std::pair<const int, cmCTestMultiProcessHandler::TestInfo>, std::_Select1st<std::pair<const int, cmCTestMultiProcessHandler::TestInfo>>, std::less<int>>::_Rb_tree_impl" }
%"struct.std::_Rb_tree<int, std::pair<const int, cmCTestMultiProcessHandler::TestInfo>, std::_Select1st<std::pair<const int, cmCTestMultiProcessHandler::TestInfo>>, std::less<int>>::_Rb_tree_impl" = type { %"struct.std::_Rb_tree_key_compare.16", %"struct.std::_Rb_tree_header" }
%"struct.std::_Rb_tree_key_compare.16" = type { %"struct.std::less.17" }
%"struct.std::less.17" = type { i8 }
%"struct.cmCTestMultiProcessHandler::PropertiesMap" = type { %"class.std::map.29" }
%"class.std::map.29" = type { %"class.std::_Rb_tree.30" }
%"class.std::_Rb_tree.30" = type { %"struct.std::_Rb_tree<int, std::pair<const int, cmCTestTestHandler::cmCTestTestProperties *>, std::_Select1st<std::pair<const int, cmCTestTestHandler::cmCTestTestProperties *>>, std::less<int>>::_Rb_tree_impl" }
%"struct.std::_Rb_tree<int, std::pair<const int, cmCTestTestHandler::cmCTestTestProperties *>, std::_Select1st<std::pair<const int, cmCTestTestHandler::cmCTestTestProperties *>>, std::less<int>>::_Rb_tree_impl" = type { %"struct.std::_Rb_tree_key_compare.16", %"struct.std::_Rb_tree_header" }
%"class.std::map.34" = type { %"class.std::_Rb_tree.35" }
%"class.std::_Rb_tree.35" = type { %"struct.std::_Rb_tree<int, std::pair<const int, std::__cxx11::basic_string<char>>, std::_Select1st<std::pair<const int, std::__cxx11::basic_string<char>>>, std::less<int>>::_Rb_tree_impl" }
%"struct.std::_Rb_tree<int, std::pair<const int, std::__cxx11::basic_string<char>>, std::_Select1st<std::pair<const int, std::__cxx11::basic_string<char>>>, std::less<int>>::_Rb_tree_impl" = type { %"struct.std::_Rb_tree_key_compare.16", %"struct.std::_Rb_tree_header" }
%"class.std::vector.39" = type { %"struct.std::_Vector_base.40" }
%"struct.std::_Vector_base.40" = type { %"struct.std::_Vector_base<std::__cxx11::basic_string<char>, std::allocator<std::__cxx11::basic_string<char>>>::_Vector_impl" }
%"struct.std::_Vector_base<std::__cxx11::basic_string<char>, std::allocator<std::__cxx11::basic_string<char>>>::_Vector_impl" = type { %"struct.std::_Vector_base<std::__cxx11::basic_string<char>, std::allocator<std::__cxx11::basic_string<char>>>::_Vector_impl_data" }
%"struct.std::_Vector_base<std::__cxx11::basic_string<char>, std::allocator<std::__cxx11::basic_string<char>>>::_Vector_impl_data" = type { ptr, ptr, ptr }
%"class.std::set.44" = type { %"class.std::_Rb_tree.45" }
%"class.std::_Rb_tree.45" = type { %"struct.std::_Rb_tree<std::__cxx11::basic_string<char>, std::__cxx11::basic_string<char>, std::_Identity<std::__cxx11::basic_string<char>>, std::less<std::__cxx11::basic_string<char>>>::_Rb_tree_impl" }
%"struct.std::_Rb_tree<std::__cxx11::basic_string<char>, std::__cxx11::basic_string<char>, std::_Identity<std::__cxx11::basic_string<char>>, std::less<std::__cxx11::basic_string<char>>>::_Rb_tree_impl" = type { %"struct.std::_Rb_tree_key_compare", %"struct.std::_Rb_tree_header" }
%"class.std::map.49" = type { %"class.std::_Rb_tree.50" }
%"class.std::_Rb_tree.50" = type { %"struct.std::_Rb_tree<int, std::pair<const int, std::vector<std::map<std::__cxx11::basic_string<char>, std::vector<cmCTestMultiProcessHandler::ResourceAllocation>>>>, std::_Select1st<std::pair<const int, std::vector<std::map<std::__cxx11::basic_string<char>, std::vector<cmCTestMultiProcessHandler::ResourceAllocation>>>>>, std::less<int>>::_Rb_tree_impl" }
%"struct.std::_Rb_tree<int, std::pair<const int, std::vector<std::map<std::__cxx11::basic_string<char>, std::vector<cmCTestMultiProcessHandler::ResourceAllocation>>>>, std::_Select1st<std::pair<const int, std::vector<std::map<std::__cxx11::basic_string<char>, std::vector<cmCTestMultiProcessHandler::ResourceAllocation>>>>>, std::less<int>>::_Rb_tree_impl" = type { %"struct.std::_Rb_tree_key_compare.16", %"struct.std::_Rb_tree_header" }
%"class.std::map.54" = type { %"class.std::_Rb_tree.55" }
%"class.std::_Rb_tree.55" = type { %"struct.std::_Rb_tree<int, std::pair<const int, std::map<std::__cxx11::basic_string<char>, cmCTestMultiProcessHandler::ResourceAvailabilityError>>, std::_Select1st<std::pair<const int, std::map<std::__cxx11::basic_string<char>, cmCTestMultiProcessHandler::ResourceAvailabilityError>>>, std::less<int>>::_Rb_tree_impl" }
%"struct.std::_Rb_tree<int, std::pair<const int, std::map<std::__cxx11::basic_string<char>, cmCTestMultiProcessHandler::ResourceAvailabilityError>>, std::_Select1st<std::pair<const int, std::map<std::__cxx11::basic_string<char>, cmCTestMultiProcessHandler::ResourceAvailabilityError>>>, std::less<int>>::_Rb_tree_impl" = type { %"struct.std::_Rb_tree_key_compare.16", %"struct.std::_Rb_tree_header" }
%class.cmCTestResourceAllocator = type { %"class.std::map.59" }
%"class.std::map.59" = type { %"class.std::_Rb_tree.60" }
%"class.std::_Rb_tree.60" = type { %"struct.std::_Rb_tree<std::__cxx11::basic_string<char>, std::pair<const std::__cxx11::basic_string<char>, std::map<std::__cxx11::basic_string<char>, cmCTestResourceAllocator::Resource>>, std::_Select1st<std::pair<const std::__cxx11::basic_string<char>, std::map<std::__cxx11::basic_string<char>, cmCTestResourceAllocator::Resource>>>, std::less<std::__cxx11::basic_string<char>>>::_Rb_tree_impl" }
%"struct.std::_Rb_tree<std::__cxx11::basic_string<char>, std::pair<const std::__cxx11::basic_string<char>, std::map<std::__cxx11::basic_string<char>, cmCTestResourceAllocator::Resource>>, std::_Select1st<std::pair<const std::__cxx11::basic_string<char>, std::map<std::__cxx11::basic_string<char>, cmCTestResourceAllocator::Resource>>>, std::less<std::__cxx11::basic_string<char>>>::_Rb_tree_impl" = type { %"struct.std::_Rb_tree_key_compare", %"struct.std::_Rb_tree_header" }
%"class.std::optional.64" = type { %"struct.std::_Optional_base.65" }
%"struct.std::_Optional_base.65" = type { %"struct.std::_Optional_payload.67" }
%"struct.std::_Optional_payload.67" = type { %"struct.std::_Optional_payload.base.73", [7 x i8] }
%"struct.std::_Optional_payload.base.73" = type { %"struct.std::_Optional_payload_base.base.72" }
%"struct.std::_Optional_payload_base.base.72" = type <{ %"union.std::_Optional_payload_base<cmUVJobServerClient>::_Storage", i8 }>
%"union.std::_Optional_payload_base<cmUVJobServerClient>::_Storage" = type { %class.cmUVJobServerClient }
%class.cmUVJobServerClient = type { %"class.std::unique_ptr" }
%"class.std::unique_ptr" = type { %"struct.std::__uniq_ptr_data" }
%"struct.std::__uniq_ptr_data" = type { %"class.std::__uniq_ptr_impl" }
%"class.std::__uniq_ptr_impl" = type { %"class.std::tuple" }
%"class.std::tuple" = type { %"struct.std::_Tuple_impl" }
%"struct.std::_Tuple_impl" = type { %"struct.std::_Head_base.71" }
%"struct.std::_Head_base.71" = type { ptr }
%"class.std::__cxx11::list" = type { %"class.std::__cxx11::_List_base" }
%"class.std::__cxx11::_List_base" = type { %"struct.std::__cxx11::_List_base<int, std::allocator<int>>::_List_impl" }
%"struct.std::__cxx11::_List_base<int, std::allocator<int>>::_List_impl" = type { %"struct.std::__detail::_List_node_header" }
%"struct.std::__detail::_List_node_header" = type { %"struct.std::__detail::_List_node_base", i64 }
%"struct.std::__detail::_List_node_base" = type { ptr, ptr }
%"class.cm::uv_loop_ptr" = type { %"class.std::shared_ptr" }
%"class.std::shared_ptr" = type { %"class.std::__shared_ptr" }
%"class.std::__shared_ptr" = type { ptr, %"class.std::__shared_count" }
%"class.std::__shared_count" = type { ptr }
%"struct.cm::uv_idle_ptr" = type { %"class.cm::uv_handle_ptr_" }
%"class.cm::uv_handle_ptr_" = type { %"class.cm::uv_handle_ptr_base_" }
%"class.cm::uv_handle_ptr_base_" = type { %"class.std::shared_ptr.76" }
%"class.std::shared_ptr.76" = type { %"class.std::__shared_ptr.77" }
%"class.std::__shared_ptr.77" = type { ptr, %"class.std::__shared_count" }
%"struct.cm::uv_timer_ptr" = type { %"class.cm::uv_handle_ptr_.79" }
%"class.cm::uv_handle_ptr_.79" = type { %"class.cm::uv_handle_ptr_base_.80" }
%"class.cm::uv_handle_ptr_base_.80" = type { %"class.std::shared_ptr.81" }
%"class.std::shared_ptr.81" = type { %"class.std::__shared_ptr.82" }
%"class.std::__shared_ptr.82" = type { ptr, %"class.std::__shared_count" }
%class.anon.262 = type { i8 }

; Function Attrs: mustprogress nounwind uwtable
define internal noundef ptr @"_ZZN26cmCTestMultiProcessHandler21StartNextTestsOnTimerEvENK3$_0cvPFvP10uv_timer_sEEv"(ptr noundef nonnull align 1 dereferenceable(1) %0) #5 align 2 {
  %2 = alloca ptr, align 8
  store ptr %0, ptr %2, align 8
  ret ptr @"_ZZN26cmCTestMultiProcessHandler21StartNextTestsOnTimerEvEN3$_08__invokeEP10uv_timer_s"
}

; Function Attrs: mustprogress uwtable
define dso_local void @_ZN26cmCTestMultiProcessHandler21StartNextTestsOnTimerEv(ptr noundef nonnull align 8 dereferenceable(870) %0) #4 align 2 {
  %2 = alloca ptr, align 8
  %3 = alloca i32, align 4
  %4 = alloca %class.anon.262, align 1
  store ptr %0, ptr %2, align 8
  %5 = load ptr, ptr %2, align 8
  %6 = getelementptr inbounds %class.cmCTestMultiProcessHandler, ptr %5, i32 0, i32 32
  %7 = load i64, ptr %6, align 8
  %8 = icmp ne i64 %7, 0
  br i1 %8, label %9, label %10

9:                                                ; preds = %1
  br label %15

10:                                               ; preds = %1
  %11 = call noundef i32 @_ZN13cmSystemTools10RandomSeedEv()
  %12 = urem i32 %11, 5
  %13 = add i32 %12, 1
  %14 = mul i32 %13, 1000
  br label %15

15:                                               ; preds = %10, %9
  %16 = phi i32 [ 10, %9 ], [ %14, %10 ]
  store i32 %16, ptr %3, align 4
  %17 = getelementptr inbounds %class.cmCTestMultiProcessHandler, ptr %5, i32 0, i32 35
  %18 = call noundef ptr @"_ZZN26cmCTestMultiProcessHandler21StartNextTestsOnTimerEvENK3$_0cvPFvP10uv_timer_sEEv"(ptr noundef nonnull align 1 dereferenceable(1) %4) #3
  %19 = load i32, ptr %3, align 4
  %20 = zext i32 %19 to i64
  %21 = call noundef i32 @_ZN2cm12uv_timer_ptr5startEPFvP10uv_timer_sEmm(ptr noundef nonnull align 8 dereferenceable(16) %17, ptr noundef %18, i64 noundef %20, i64 noundef 0)
  ret void
}