; Function Attrs: mustprogress uwtable
define dso_local void @_ZN26cmCTestMultiProcessHandler21StartNextTestsOnTimerEv(ptr noundef nonnull align 8 dereferenceable(870) %0) local_unnamed_addr #3 align 2 {
  %2 = getelementptr inbounds i8, ptr %0, i64 784
  %3 = load i64, ptr %2, align 8
  %.not = icmp eq i64 %3, 0
  br i1 %.not, label %4, label %10

4:                                                ; preds = %1
  %5 = tail call noundef i32 @_ZN13cmSystemTools10RandomSeedEv()
  %6 = urem i32 %5, 5
  %7 = mul nuw nsw i32 %6, 1000
  %8 = add nuw nsw i32 %7, 1000
  %9 = zext nneg i32 %8 to i64
  br label %10

10:                                               ; preds = %1, %4
  %11 = phi i64 [ %9, %4 ], [ 10, %1 ]
  %12 = getelementptr inbounds i8, ptr %0, i64 824
  %13 = tail call noundef i32 @_ZN2cm12uv_timer_ptr5startEPFvP10uv_timer_sEmm(ptr noundef nonnull align 8 dereferenceable(16) %12, ptr noundef nonnull @"_ZZN26cmCTestMultiProcessHandler21StartNextTestsOnTimerEvEN3$_08__invokeEP10uv_timer_s", i64 noundef %11, i64 noundef 0)
  ret void
}